target datalayout = "e-m:e-p270:32:32-p271:32:32-p272:64:64-i64:64-i128:128-f80:128-n8:16:32:64-S128"
target triple = "x86_64-pc-linux-gnu"

%struct.evp_pkey_method_st = type { i32, i32, ptr, ptr, ptr, ptr, ptr, ptr, ptr, ptr, ptr, ptr, ptr, ptr, ptr, ptr, ptr, ptr, ptr, ptr, ptr, ptr, ptr, ptr, ptr, ptr, ptr, ptr, ptr, ptr, ptr, ptr, ptr }
%struct.RSA_PKEY_CTX = type { i32, ptr, i32, [2 x i32], i32, ptr, ptr, i32, i32, ptr, ptr, i64, i32 }
%struct.evp_pkey_ctx_st = type { i32, ptr, ptr, ptr, ptr, %union.anon, %struct.anon.4, ptr, ptr, ptr, i32, i32, ptr, ptr, ptr, ptr, ptr, i8, ptr }
%union.anon = type { %struct.anon.0 }
%struct.anon.0 = type { ptr, ptr }
%struct.anon.4 = type { ptr, ptr, i64, i8 }

@.str = private unnamed_addr constant [34 x i8] c"../openssl/crypto/rsa/rsa_pmeth.c\00", align 1

; Function Attrs: nounwind uwtable
define internal i32 @pkey_rsa_init(ptr noundef %0) #0 {
  %2 = alloca i32, align 4
  %3 = alloca ptr, align 8
  %4 = alloca ptr, align 8
  %5 = alloca i32, align 4
  store ptr %0, ptr %3, align 8, !tbaa !3
  call void @llvm.lifetime.start.p0(i64 8, ptr %4) #8
  %6 = call noalias ptr @CRYPTO_zalloc(i64 noundef 88, ptr noundef @.str, i32 noundef 64)
  store ptr %6, ptr %4, align 8, !tbaa !8
  %7 = load ptr, ptr %4, align 8, !tbaa !8
  %8 = icmp eq ptr %7, null
  br i1 %8, label %9, label %10

9:                                                ; preds = %1
  store i32 0, ptr %2, align 4
  store i32 1, ptr %5, align 4
  br label %44

10:                                               ; preds = %1
  %11 = load ptr, ptr %4, align 8, !tbaa !8
  %12 = getelementptr inbounds nuw %struct.RSA_PKEY_CTX, ptr %11, i32 0, i32 0
  store i32 2048, ptr %12, align 8, !tbaa !9
  %13 = load ptr, ptr %4, align 8, !tbaa !8
  %14 = getelementptr inbounds nuw %struct.RSA_PKEY_CTX, ptr %13, i32 0, i32 2
  store i32 2, ptr %14, align 8, !tbaa !16
  %15 = load ptr, ptr %3, align 8, !tbaa !3
  %16 = getelementptr inbounds nuw %struct.evp_pkey_ctx_st, ptr %15, i32 0, i32 12
  %17 = load ptr, ptr %16, align 8, !tbaa !17
  %18 = getelementptr inbounds nuw %struct.evp_pkey_method_st, ptr %17, i32 0, i32 0
  %19 = load i32, ptr %18, align 8, !tbaa !26
  %20 = icmp eq i32 %19, 912
  br i1 %20, label %21, label %24

21:                                               ; preds = %10
  %22 = load ptr, ptr %4, align 8, !tbaa !8
  %23 = getelementptr inbounds nuw %struct.RSA_PKEY_CTX, ptr %22, i32 0, i32 4
  store i32 6, ptr %23, align 4, !tbaa !28
  br label %27

24:                                               ; preds = %10
  %25 = load ptr, ptr %4, align 8, !tbaa !8
  %26 = getelementptr inbounds nuw %struct.RSA_PKEY_CTX, ptr %25, i32 0, i32 4
  store i32 1, ptr %26, align 4, !tbaa !28
  br label %27

27:                                               ; preds = %24, %21
  %28 = load ptr, ptr %4, align 8, !tbaa !8
  %29 = getelementptr inbounds nuw %struct.RSA_PKEY_CTX, ptr %28, i32 0, i32 7
  store i32 -2, ptr %29, align 8, !tbaa !29
  %30 = load ptr, ptr %4, align 8, !tbaa !8
  %31 = getelementptr inbounds nuw %struct.RSA_PKEY_CTX, ptr %30, i32 0, i32 8
  store i32 -1, ptr %31, align 4, !tbaa !30
  %32 = load ptr, ptr %4, align 8, !tbaa !8
  %33 = getelementptr inbounds nuw %struct.RSA_PKEY_CTX, ptr %32, i32 0, i32 12
  store i32 1, ptr %33, align 8, !tbaa !31
  %34 = load ptr, ptr %4, align 8, !tbaa !8
  %35 = load ptr, ptr %3, align 8, !tbaa !3
  %36 = getelementptr inbounds nuw %struct.evp_pkey_ctx_st, ptr %35, i32 0, i32 16
  store ptr %34, ptr %36, align 8, !tbaa !32
  %37 = load ptr, ptr %4, align 8, !tbaa !8
  %38 = getelementptr inbounds nuw %struct.RSA_PKEY_CTX, ptr %37, i32 0, i32 3
  %39 = getelementptr inbounds [2 x i32], ptr %38, i64 0, i64 0
  %40 = load ptr, ptr %3, align 8, !tbaa !3
  %41 = getelementptr inbounds nuw %struct.evp_pkey_ctx_st, ptr %40, i32 0, i32 9
  store ptr %39, ptr %41, align 8, !tbaa !33
  %42 = load ptr, ptr %3, align 8, !tbaa !3
  %43 = getelementptr inbounds nuw %struct.evp_pkey_ctx_st, ptr %42, i32 0, i32 10
  store i32 2, ptr %43, align 8, !tbaa !34
  store i32 1, ptr %2, align 4
  store i32 1, ptr %5, align 4
  br label %44

44:                                               ; preds = %27, %9
  call void @llvm.lifetime.end.p0(i64 8, ptr %4) #8
  %45 = load i32, ptr %2, align 4
  ret i32 %45
}

; Function Attrs: nounwind uwtable
define internal i32 @pkey_rsa_copy(ptr noundef %0, ptr noundef %1) #0 {
  %3 = alloca i32, align 4
  %4 = alloca ptr, align 8
  %5 = alloca ptr, align 8
  %6 = alloca ptr, align 8
  %7 = alloca ptr, align 8
  %8 = alloca i32, align 4
  store ptr %0, ptr %4, align 8, !tbaa !3
  store ptr %1, ptr %5, align 8, !tbaa !3
  call void @llvm.lifetime.start.p0(i64 8, ptr %6) #8
  call void @llvm.lifetime.start.p0(i64 8, ptr %7) #8
  %9 = load ptr, ptr %4, align 8, !tbaa !3
  %10 = call i32 @pkey_rsa_init(ptr noundef %9)
  %11 = icmp ne i32 %10, 0
  br i1 %11, label %13, label %12

12:                                               ; preds = %2
  store i32 0, ptr %3, align 4
  store i32 1, ptr %8, align 4
  br label %97

13:                                               ; preds = %2
  %14 = load ptr, ptr %5, align 8, !tbaa !3
  %15 = getelementptr inbounds nuw %struct.evp_pkey_ctx_st, ptr %14, i32 0, i32 16
  %16 = load ptr, ptr %15, align 8, !tbaa !32
  store ptr %16, ptr %7, align 8, !tbaa !8
  %17 = load ptr, ptr %4, align 8, !tbaa !3
  %18 = getelementptr inbounds nuw %struct.evp_pkey_ctx_st, ptr %17, i32 0, i32 16
  %19 = load ptr, ptr %18, align 8, !tbaa !32
  store ptr %19, ptr %6, align 8, !tbaa !8
  %20 = load ptr, ptr %7, align 8, !tbaa !8
  %21 = getelementptr inbounds nuw %struct.RSA_PKEY_CTX, ptr %20, i32 0, i32 0
  %22 = load i32, ptr %21, align 8, !tbaa !9
  %23 = load ptr, ptr %6, align 8, !tbaa !8
  %24 = getelementptr inbounds nuw %struct.RSA_PKEY_CTX, ptr %23, i32 0, i32 0
  store i32 %22, ptr %24, align 8, !tbaa !9
  %25 = load ptr, ptr %7, align 8, !tbaa !8
  %26 = getelementptr inbounds nuw %struct.RSA_PKEY_CTX, ptr %25, i32 0, i32 1
  %27 = load ptr, ptr %26, align 8, !tbaa !35
  %28 = icmp ne ptr %27, null
  br i1 %28, label %29, label %42

29:                                               ; preds = %13
  %30 = load ptr, ptr %7, align 8, !tbaa !8
  %31 = getelementptr inbounds nuw %struct.RSA_PKEY_CTX, ptr %30, i32 0, i32 1
  %32 = load ptr, ptr %31, align 8, !tbaa !35
  %33 = call ptr @BN_dup(ptr noundef %32)
  %34 = load ptr, ptr %6, align 8, !tbaa !8
  %35 = getelementptr inbounds nuw %struct.RSA_PKEY_CTX, ptr %34, i32 0, i32 1
  store ptr %33, ptr %35, align 8, !tbaa !35
  %36 = load ptr, ptr %6, align 8, !tbaa !8
  %37 = getelementptr inbounds nuw %struct.RSA_PKEY_CTX, ptr %36, i32 0, i32 1
  %38 = load ptr, ptr %37, align 8, !tbaa !35
  %39 = icmp ne ptr %38, null
  br i1 %39, label %41, label %40

40:                                               ; preds = %29
  store i32 0, ptr %3, align 4
  store i32 1, ptr %8, align 4
  br label %97

41:                                               ; preds = %29
  br label %42

42:                                               ; preds = %41, %13
  %43 = load ptr, ptr %7, align 8, !tbaa !8
  %44 = getelementptr inbounds nuw %struct.RSA_PKEY_CTX, ptr %43, i32 0, i32 4
  %45 = load i32, ptr %44, align 4, !tbaa !28
  %46 = load ptr, ptr %6, align 8, !tbaa !8
  %47 = getelementptr inbounds nuw %struct.RSA_PKEY_CTX, ptr %46, i32 0, i32 4
  store i32 %45, ptr %47, align 4, !tbaa !28
  %48 = load ptr, ptr %7, align 8, !tbaa !8
  %49 = getelementptr inbounds nuw %struct.RSA_PKEY_CTX, ptr %48, i32 0, i32 5
  %50 = load ptr, ptr %49, align 8, !tbaa !36
  %51 = load ptr, ptr %6, align 8, !tbaa !8
  %52 = getelementptr inbounds nuw %struct.RSA_PKEY_CTX, ptr %51, i32 0, i32 5
  store ptr %50, ptr %52, align 8, !tbaa !36
  %53 = load ptr, ptr %7, align 8, !tbaa !8
  %54 = getelementptr inbounds nuw %struct.RSA_PKEY_CTX, ptr %53, i32 0, i32 6
  %55 = load ptr, ptr %54, align 8, !tbaa !37
  %56 = load ptr, ptr %6, align 8, !tbaa !8
  %57 = getelementptr inbounds nuw %struct.RSA_PKEY_CTX, ptr %56, i32 0, i32 6
  store ptr %55, ptr %57, align 8, !tbaa !37
  %58 = load ptr, ptr %7, align 8, !tbaa !8
  %59 = getelementptr inbounds nuw %struct.RSA_PKEY_CTX, ptr %58, i32 0, i32 7
  %60 = load i32, ptr %59, align 8, !tbaa !29
  %61 = load ptr, ptr %6, align 8, !tbaa !8
  %62 = getelementptr inbounds nuw %struct.RSA_PKEY_CTX, ptr %61, i32 0, i32 7
  store i32 %60, ptr %62, align 8, !tbaa !29
  %63 = load ptr, ptr %7, align 8, !tbaa !8
  %64 = getelementptr inbounds nuw %struct.RSA_PKEY_CTX, ptr %63, i32 0, i32 12
  %65 = load i32, ptr %64, align 8, !tbaa !31
  %66 = load ptr, ptr %6, align 8, !tbaa !8
  %67 = getelementptr inbounds nuw %struct.RSA_PKEY_CTX, ptr %66, i32 0, i32 12
  store i32 %65, ptr %67, align 8, !tbaa !31
  %68 = load ptr, ptr %7, align 8, !tbaa !8
  %69 = getelementptr inbounds nuw %struct.RSA_PKEY_CTX, ptr %68, i32 0, i32 10
  %70 = load ptr, ptr %69, align 8, !tbaa !38
  %71 = icmp ne ptr %70, null
  br i1 %71, label %72, label %96

72:                                               ; preds = %42
  %73 = load ptr, ptr %6, align 8, !tbaa !8
  %74 = getelementptr inbounds nuw %struct.RSA_PKEY_CTX, ptr %73, i32 0, i32 10
  %75 = load ptr, ptr %74, align 8, !tbaa !38
  call void @CRYPTO_free(ptr noundef %75, ptr noundef @.str, i32 noundef 105)
  %76 = load ptr, ptr %7, align 8, !tbaa !8
  %77 = getelementptr inbounds nuw %struct.RSA_PKEY_CTX, ptr %76, i32 0, i32 10
  %78 = load ptr, ptr %77, align 8, !tbaa !38
  %79 = load ptr, ptr %7, align 8, !tbaa !8
  %80 = getelementptr inbounds nuw %struct.RSA_PKEY_CTX, ptr %79, i32 0, i32 11
  %81 = load i64, ptr %80, align 8, !tbaa !39
  %82 = call noalias ptr @CRYPTO_memdup(ptr noundef %78, i64 noundef %81, ptr noundef @.str, i32 noundef 106)
  %83 = load ptr, ptr %6, align 8, !tbaa !8
  %84 = getelementptr inbounds nuw %struct.RSA_PKEY_CTX, ptr %83, i32 0, i32 10
  store ptr %82, ptr %84, align 8, !tbaa !38
  %85 = load ptr, ptr %6, align 8, !tbaa !8
  %86 = getelementptr inbounds nuw %struct.RSA_PKEY_CTX, ptr %85, i32 0, i32 10
  %87 = load ptr, ptr %86, align 8, !tbaa !38
  %88 = icmp ne ptr %87, null
  br i1 %88, label %90, label %89

89:                                               ; preds = %72
  store i32 0, ptr %3, align 4
  store i32 1, ptr %8, align 4
  br label %97

90:                                               ; preds = %72
  %91 = load ptr, ptr %7, align 8, !tbaa !8
  %92 = getelementptr inbounds nuw %struct.RSA_PKEY_CTX, ptr %91, i32 0, i32 11
  %93 = load i64, ptr %92, align 8, !tbaa !39
  %94 = load ptr, ptr %6, align 8, !tbaa !8
  %95 = getelementptr inbounds nuw %struct.RSA_PKEY_CTX, ptr %94, i32 0, i32 11
  store i64 %93, ptr %95, align 8, !tbaa !39
  br label %96

96:                                               ; preds = %90, %42
  store i32 1, ptr %3, align 4
  store i32 1, ptr %8, align 4
  br label %97

97:                                               ; preds = %96, %89, %40, %12
  call void @llvm.lifetime.end.p0(i64 8, ptr %7) #8
  call void @llvm.lifetime.end.p0(i64 8, ptr %6) #8
  %98 = load i32, ptr %3, align 4
  ret i32 %98
}