; Function Attrs: nounwind uwtable
define internal range(i32 0, 2) i32 @pkey_rsa_copy(ptr noundef captures(none) %0, ptr noundef readonly captures(none) %1) #1 {
  %3 = tail call noalias ptr @CRYPTO_zalloc(i64 noundef 88, ptr noundef nonnull @.str, i32 noundef 64) #9
  %4 = icmp eq ptr %3, null
  br i1 %4, label %pkey_rsa_init.exit.thread, label %5

5:                                                ; preds = %2
  store i32 2048, ptr %3, align 8, !tbaa !3
  %6 = getelementptr inbounds nuw i8, ptr %3, i64 16
  store i32 2, ptr %6, align 8, !tbaa !13
  %7 = getelementptr inbounds nuw i8, ptr %0, i64 120
  %8 = load ptr, ptr %7, align 8, !tbaa !14
  %9 = load i32, ptr %8, align 8, !tbaa !23
  %10 = icmp eq i32 %9, 912
  %spec.select.i = select i1 %10, i32 6, i32 1
  %11 = getelementptr inbounds nuw i8, ptr %3, i64 28
  store i32 %spec.select.i, ptr %11, align 4, !tbaa !25
  %12 = getelementptr inbounds nuw i8, ptr %3, i64 48
  store i32 -2, ptr %12, align 8, !tbaa !26
  %13 = getelementptr inbounds nuw i8, ptr %3, i64 52
  store i32 -1, ptr %13, align 4, !tbaa !27
  %14 = getelementptr inbounds nuw i8, ptr %3, i64 80
  store i32 1, ptr %14, align 8, !tbaa !28
  %15 = getelementptr inbounds nuw i8, ptr %0, i64 152
  store ptr %3, ptr %15, align 8, !tbaa !29
  %16 = getelementptr inbounds nuw i8, ptr %3, i64 20
  %17 = getelementptr inbounds nuw i8, ptr %0, i64 104
  store ptr %16, ptr %17, align 8, !tbaa !30
  %18 = getelementptr inbounds nuw i8, ptr %0, i64 112
  store i32 2, ptr %18, align 8, !tbaa !31
  %19 = getelementptr inbounds nuw i8, ptr %1, i64 152
  %20 = load ptr, ptr %19, align 8, !tbaa !29
  %21 = load i32, ptr %20, align 8, !tbaa !3
  store i32 %21, ptr %3, align 8, !tbaa !3
  %22 = getelementptr inbounds nuw i8, ptr %20, i64 8
  %23 = load ptr, ptr %22, align 8, !tbaa !32
  %.not28 = icmp eq ptr %23, null
  br i1 %.not28, label %27, label %24

24:                                               ; preds = %5
  %25 = tail call ptr @BN_dup(ptr noundef nonnull %23) #9
  %26 = getelementptr inbounds nuw i8, ptr %3, i64 8
  store ptr %25, ptr %26, align 8, !tbaa !32
  %.not29 = icmp eq ptr %25, null
  br i1 %.not29, label %pkey_rsa_init.exit.thread, label %27

27:                                               ; preds = %24, %5
  %28 = getelementptr inbounds nuw i8, ptr %20, i64 28
  %29 = load i32, ptr %28, align 4, !tbaa !25
  store i32 %29, ptr %11, align 4, !tbaa !25
  %30 = getelementptr inbounds nuw i8, ptr %20, i64 32
  %31 = load ptr, ptr %30, align 8, !tbaa !33
  %32 = getelementptr inbounds nuw i8, ptr %3, i64 32
  store ptr %31, ptr %32, align 8, !tbaa !33
  %33 = getelementptr inbounds nuw i8, ptr %20, i64 40
  %34 = load ptr, ptr %33, align 8, !tbaa !34
  %35 = getelementptr inbounds nuw i8, ptr %3, i64 40
  store ptr %34, ptr %35, align 8, !tbaa !34
  %36 = getelementptr inbounds nuw i8, ptr %20, i64 48
  %37 = load i32, ptr %36, align 8, !tbaa !26
  store i32 %37, ptr %12, align 8, !tbaa !26
  %38 = getelementptr inbounds nuw i8, ptr %20, i64 80
  %39 = load i32, ptr %38, align 8, !tbaa !28
  store i32 %39, ptr %14, align 8, !tbaa !28
  %40 = getelementptr inbounds nuw i8, ptr %20, i64 64
  %41 = load ptr, ptr %40, align 8, !tbaa !35
  %.not30 = icmp eq ptr %41, null
  br i1 %.not30, label %pkey_rsa_init.exit.thread, label %42

42:                                               ; preds = %27
  %43 = getelementptr inbounds nuw i8, ptr %3, i64 64
  %44 = load ptr, ptr %43, align 8, !tbaa !35
  tail call void @CRYPTO_free(ptr noundef %44, ptr noundef nonnull @.str, i32 noundef 105) #9
  %45 = load ptr, ptr %40, align 8, !tbaa !35
  %46 = getelementptr inbounds nuw i8, ptr %20, i64 72
  %47 = load i64, ptr %46, align 8, !tbaa !36
  %48 = tail call noalias ptr @CRYPTO_memdup(ptr noundef %45, i64 noundef %47, ptr noundef nonnull @.str, i32 noundef 106) #9
  store ptr %48, ptr %43, align 8, !tbaa !35
  %.not31 = icmp eq ptr %48, null
  br i1 %.not31, label %pkey_rsa_init.exit.thread, label %49

49:                                               ; preds = %42
  %50 = load i64, ptr %46, align 8, !tbaa !36
  %51 = getelementptr inbounds nuw i8, ptr %3, i64 72
  store i64 %50, ptr %51, align 8, !tbaa !36
  br label %pkey_rsa_init.exit.thread

pkey_rsa_init.exit.thread:                        ; preds = %2, %27, %49, %42, %24
  %.0 = phi i32 [ 0, %24 ], [ 0, %42 ], [ 1, %49 ], [ 1, %27 ], [ 0, %2 ]
  ret i32 %.0
}